target datalayout = "e-m:e-p270:32:32-p271:32:32-p272:64:64-i64:64-i128:128-f80:128-n8:16:32:64-S128"
target triple = "x86_64-pc-linux-gnu"

%struct.asdl_comprehension_seq = type { i64, ptr, [1 x ptr] }

; Function Attrs: nounwind uwtable
define internal i32 @append_ast_comprehensions(ptr noundef %0, ptr noundef %1) #0 {
  %3 = alloca i32, align 4
  %4 = alloca ptr, align 8
  %5 = alloca ptr, align 8
  %6 = alloca i64, align 8
  %7 = alloca i64, align 8
  %8 = alloca i32, align 4
  store ptr %0, ptr %4, align 8, !tbaa !11
  store ptr %1, ptr %5, align 8, !tbaa !20
  call void @llvm.lifetime.start.p0(i64 8, ptr %6) #6
  call void @llvm.lifetime.start.p0(i64 8, ptr %7) #6
  %9 = load ptr, ptr %5, align 8, !tbaa !20
  %10 = icmp eq ptr %9, null
  br i1 %10, label %11, label %12

11:                                               ; preds = %2
  br label %16

12:                                               ; preds = %2
  %13 = load ptr, ptr %5, align 8, !tbaa !20
  %14 = getelementptr inbounds nuw %struct.asdl_comprehension_seq, ptr %13, i32 0, i32 0
  %15 = load i64, ptr %14, align 8, !tbaa !21
  br label %16

16:                                               ; preds = %12, %11
  %17 = phi i64 [ 0, %11 ], [ %15, %12 ]
  store i64 %17, ptr %7, align 8, !tbaa !24
  store i64 0, ptr %6, align 8, !tbaa !24
  br label %18

18:                                               ; preds = %36, %16
  %19 = load i64, ptr %6, align 8, !tbaa !24
  %20 = load i64, ptr %7, align 8, !tbaa !24
  %21 = icmp slt i64 %19, %20
  br i1 %21, label %22, label %39

22:                                               ; preds = %18
  br label %23

23:                                               ; preds = %22
  %24 = load ptr, ptr %4, align 8, !tbaa !11
  %25 = load ptr, ptr %5, align 8, !tbaa !20
  %26 = getelementptr inbounds nuw %struct.asdl_comprehension_seq, ptr %25, i32 0, i32 2
  %27 = load i64, ptr %6, align 8, !tbaa !24
  %28 = getelementptr [1 x ptr], ptr %26, i64 0, i64 %27
  %29 = load ptr, ptr %28, align 8, !tbaa !58
  %30 = call i32 @append_ast_comprehension(ptr noundef %24, ptr noundef %29)
  %31 = icmp eq i32 -1, %30
  br i1 %31, label %32, label %33

32:                                               ; preds = %23
  store i32 -1, ptr %3, align 4
  store i32 1, ptr %8, align 4
  br label %40

33:                                               ; preds = %23
  br label %34

34:                                               ; preds = %33
  br label %35

35:                                               ; preds = %34
  br label %36

36:                                               ; preds = %35
  %37 = load i64, ptr %6, align 8, !tbaa !24
  %38 = add i64 %37, 1
  store i64 %38, ptr %6, align 8, !tbaa !24
  br label %18, !llvm.loop !60

39:                                               ; preds = %18
  store i32 0, ptr %3, align 4
  store i32 1, ptr %8, align 4
  br label %40

40:                                               ; preds = %39, %32
  call void @llvm.lifetime.end.p0(i64 8, ptr %7) #6
  call void @llvm.lifetime.end.p0(i64 8, ptr %6) #6
  %41 = load i32, ptr %3, align 4
  ret i32 %41
}