; Function Attrs: nounwind uwtable
define internal fastcc range(i32 -1, 1) i32 @append_ast_comprehensions(ptr noundef nonnull %0, ptr noundef readonly %1) unnamed_addr #0 {
  %3 = icmp eq ptr %1, null
  br i1 %3, label %._crit_edge, label %4

4:                                                ; preds = %2
  %5 = load i64, ptr %1, align 8, !tbaa !10
  %6 = getelementptr inbounds nuw i8, ptr %1, i64 16
  %7 = icmp sgt i64 %5, 0
  br i1 %7, label %.lr.ph, label %._crit_edge

8:                                                ; preds = %.lr.ph
  %9 = add nuw nsw i64 %.0810, 1
  %exitcond.not = icmp eq i64 %9, %5
  br i1 %exitcond.not, label %._crit_edge, label %.lr.ph, !llvm.loop !41

.lr.ph:                                           ; preds = %4, %8
  %.0810 = phi i64 [ %9, %8 ], [ 0, %4 ]
  %10 = getelementptr [1 x ptr], ptr %6, i64 0, i64 %.0810
  %11 = load ptr, ptr %10, align 8, !tbaa !42
  %12 = tail call fastcc i32 @append_ast_comprehension(ptr noundef %0, ptr noundef %11)
  %13 = icmp eq i32 %12, -1
  br i1 %13, label %._crit_edge, label %8

._crit_edge:                                      ; preds = %.lr.ph, %8, %2, %4
  %.0 = phi i32 [ 0, %4 ], [ 0, %2 ], [ 0, %8 ], [ -1, %.lr.ph ]
  ret i32 %.0
}